ARM GAS  C:\Users\Joon\AppData\Local\Temp\ccfpifOA.s 			page 1


   1              		.syntax unified
   2              		.cpu cortex-m3
   3              		.fpu softvfp
   4              		.eabi_attribute 20, 1
   5              		.eabi_attribute 21, 1
   6              		.eabi_attribute 23, 3
   7              		.eabi_attribute 24, 1
   8              		.eabi_attribute 25, 1
   9              		.eabi_attribute 26, 1
  10              		.eabi_attribute 30, 1
  11              		.eabi_attribute 34, 1
  12              		.eabi_attribute 18, 4
  13              		.thumb
  14              		.syntax unified
  15              		.file	"main.c"
  16              		.text
  17              	.Ltext0:
  18              		.cfi_sections	.debug_frame
  19              		.global	__aeabi_i2d
  20              		.global	__aeabi_dmul
  21              		.global	__aeabi_ddiv
  22              		.global	__aeabi_d2f
  23              		.global	__aeabi_f2uiz
  24              		.section	.text.main,"ax",%progbits
  25              		.align	2
  26              		.global	main
  27              		.thumb
  28              		.thumb_func
  29              		.type	main, %function
  30              	main:
  31              	.LFB63:
  32              		.file 1 "main.c"
   1:main.c        **** 
   2:main.c        **** #include "project.h"
   3:main.c        **** 
   4:main.c        **** int main(void)
   5:main.c        **** {
  33              		.loc 1 5 0
  34              		.cfi_startproc
  35              		@ args = 0, pretend = 0, frame = 0
  36              		@ frame_needed = 0, uses_anonymous_args = 0
  37 0000 70B5     		push	{r4, r5, r6, lr}
  38              		.cfi_def_cfa_offset 16
  39              		.cfi_offset 4, -16
  40              		.cfi_offset 5, -12
  41              		.cfi_offset 6, -8
  42              		.cfi_offset 14, -4
  43              	.LVL0:
   6:main.c        ****     int counter1 = 0;
   7:main.c        ****     int counter2 = 0;
   8:main.c        ****     int counter_difference = 0;
   9:main.c        ****     float counts_per_rev = 815.5;
  10:main.c        ****     float speed = 0;
  11:main.c        ****     
  12:main.c        ****     int compare = 0;
  13:main.c        ****     
  14:main.c        **** //    int pot = 0;
ARM GAS  C:\Users\Joon\AppData\Local\Temp\ccfpifOA.s 			page 2


  15:main.c        ****     quaddec_1_Start();
  44              		.loc 1 15 0
  45 0002 FFF7FEFF 		bl	quaddec_1_Start
  46              	.LVL1:
  16:main.c        ****     lcd_char_1_Start();
  47              		.loc 1 16 0
  48 0006 FFF7FEFF 		bl	lcd_char_1_Start
  49              	.LVL2:
  17:main.c        ****     ADC_SAR_Seq_1_Start();  // start the ADC block
  50              		.loc 1 17 0
  51 000a FFF7FEFF 		bl	ADC_SAR_Seq_1_Start
  52              	.LVL3:
  18:main.c        ****     ADC_SAR_Seq_1_StartConvert();   // start the conversion process
  53              		.loc 1 18 0
  54 000e FFF7FEFF 		bl	ADC_SAR_Seq_1_StartConvert
  55              	.LVL4:
  19:main.c        ****     PWM_1_Start();
  56              		.loc 1 19 0
  57 0012 FFF7FEFF 		bl	PWM_1_Start
  58              	.LVL5:
  59              	.L4:
  20:main.c        **** 
  21:main.c        ****     for(;;)
  22:main.c        ****     {
  23:main.c        ****         compare = 0 ;   // this is what will control the speed of the motor
  60              		.loc 1 23 0
  61 0016 0024     		movs	r4, #0
  24:main.c        ****         
  25:main.c        ****         while (compare <= 100)
  62              		.loc 1 25 0
  63 0018 3EE0     		b	.L2
  64              	.LVL6:
  65              	.L3:
  26:main.c        ****         {
  27:main.c        ****             // because the motor is going to run in the same direction for a good amount of time in
  28:main.c        ****             // to count the number of pulses from the encoder. At the beginning of the loop, we nee
  29:main.c        ****             quaddec_1_SetCounter(0);
  66              		.loc 1 29 0
  67 001a 0020     		movs	r0, #0
  68 001c FFF7FEFF 		bl	quaddec_1_SetCounter
  69              	.LVL7:
  30:main.c        ****             
  31:main.c        ****             PWM_1_WriteCompare(compare);    // set motor speed
  70              		.loc 1 31 0
  71 0020 E0B2     		uxtb	r0, r4
  72 0022 FFF7FEFF 		bl	PWM_1_WriteCompare
  73              	.LVL8:
  32:main.c        ****             CyDelay(1000);  // let the motor reach its max speed
  74              		.loc 1 32 0
  75 0026 4FF47A70 		mov	r0, #1000
  76 002a FFF7FEFF 		bl	CyDelay
  77              	.LVL9:
  33:main.c        ****             
  34:main.c        ****             counter1 = quaddec_1_GetCounter();   // counter from encoder
  78              		.loc 1 34 0
  79 002e FFF7FEFF 		bl	quaddec_1_GetCounter
  80              	.LVL10:
ARM GAS  C:\Users\Joon\AppData\Local\Temp\ccfpifOA.s 			page 3


  81 0032 0546     		mov	r5, r0
  82              	.LVL11:
  35:main.c        ****             CyDelay(1000);  // wait 1 second
  83              		.loc 1 35 0
  84 0034 4FF47A70 		mov	r0, #1000
  85              	.LVL12:
  86 0038 FFF7FEFF 		bl	CyDelay
  87              	.LVL13:
  36:main.c        ****             counter2 = quaddec_1_GetCounter();   // counter from encoder
  88              		.loc 1 36 0
  89 003c FFF7FEFF 		bl	quaddec_1_GetCounter
  90              	.LVL14:
  91 0040 0646     		mov	r6, r0
  92              	.LVL15:
  37:main.c        ****             PWM_1_WriteCompare(100); // turn motor off before calculating the counter difference
  93              		.loc 1 37 0
  94 0042 6420     		movs	r0, #100
  95              	.LVL16:
  96 0044 FFF7FEFF 		bl	PWM_1_WriteCompare
  97              	.LVL17:
  38:main.c        ****             counter_difference = counter2 - counter1;   // units of counts per sec
  39:main.c        ****             
  40:main.c        ****             speed = (counter_difference * 60.0) / counts_per_rev;   // calculation to get rpm revol
  98              		.loc 1 40 0
  99 0048 701B     		subs	r0, r6, r5
 100              	.LVL18:
 101 004a FFF7FEFF 		bl	__aeabi_i2d
 102              	.LVL19:
 103 004e 0022     		movs	r2, #0
 104 0050 154B     		ldr	r3, .L6+8
 105 0052 FFF7FEFF 		bl	__aeabi_dmul
 106              	.LVL20:
 107 0056 12A3     		adr	r3, .L6
 108 0058 D3E90023 		ldrd	r2, [r3]
 109 005c FFF7FEFF 		bl	__aeabi_ddiv
 110              	.LVL21:
 111 0060 FFF7FEFF 		bl	__aeabi_d2f
 112              	.LVL22:
 113 0064 0546     		mov	r5, r0
 114              	.LVL23:
  41:main.c        ****             lcd_char_1_ClearDisplay();
 115              		.loc 1 41 0
 116 0066 0120     		movs	r0, #1
 117              	.LVL24:
 118 0068 FFF7FEFF 		bl	lcd_char_1_WriteControl
 119              	.LVL25:
  42:main.c        ****             lcd_char_1_Position(0, 0);
 120              		.loc 1 42 0
 121 006c 0021     		movs	r1, #0
 122 006e 0846     		mov	r0, r1
 123 0070 FFF7FEFF 		bl	lcd_char_1_Position
 124              	.LVL26:
  43:main.c        ****             lcd_char_1_PrintNumber(compare);    // print the value of the potentiometer onto the LC
 125              		.loc 1 43 0
 126 0074 A0B2     		uxth	r0, r4
 127 0076 FFF7FEFF 		bl	lcd_char_1_PrintU32Number
 128              	.LVL27:
ARM GAS  C:\Users\Joon\AppData\Local\Temp\ccfpifOA.s 			page 4


  44:main.c        ****             lcd_char_1_Position(0, 5);
 129              		.loc 1 44 0
 130 007a 0521     		movs	r1, #5
 131 007c 0020     		movs	r0, #0
 132 007e FFF7FEFF 		bl	lcd_char_1_Position
 133              	.LVL28:
  45:main.c        ****             lcd_char_1_PrintNumber(speed);    // print the value of the potentiometer onto the LCd 
 134              		.loc 1 45 0
 135 0082 2846     		mov	r0, r5
 136 0084 FFF7FEFF 		bl	__aeabi_f2uiz
 137              	.LVL29:
 138 0088 80B2     		uxth	r0, r0
 139 008a FFF7FEFF 		bl	lcd_char_1_PrintU32Number
 140              	.LVL30:
  46:main.c        ****             CyDelay(2000);
 141              		.loc 1 46 0
 142 008e 4FF4FA60 		mov	r0, #2000
 143 0092 FFF7FEFF 		bl	CyDelay
 144              	.LVL31:
  47:main.c        ****             compare = compare + 10;
 145              		.loc 1 47 0
 146 0096 0A34     		adds	r4, r4, #10
 147              	.LVL32:
 148              	.L2:
  25:main.c        ****         {
 149              		.loc 1 25 0
 150 0098 642C     		cmp	r4, #100
 151 009a BEDD     		ble	.L3
 152 009c BBE7     		b	.L4
 153              	.L7:
 154 009e 00BF     		.align	3
 155              	.L6:
 156 00a0 00000000 		.word	0
 157 00a4 007C8940 		.word	1082752000
 158 00a8 00004E40 		.word	1078853632
 159              		.cfi_endproc
 160              	.LFE63:
 161              		.size	main, .-main
 162              		.text
 163              	.Letext0:
 164              		.file 2 "c:\\program files (x86)\\cypress\\psoc creator\\4.4\\psoc creator\\import\\gnu\\arm\\5.4.
 165              		.file 3 "c:\\program files (x86)\\cypress\\psoc creator\\4.4\\psoc creator\\import\\gnu\\arm\\5.4.
 166              		.file 4 "Generated_Source\\PSoC5/cytypes.h"
 167              		.file 5 "Generated_Source\\PSoC5/quaddec_1.h"
 168              		.file 6 "Generated_Source\\PSoC5/lcd_char_1.h"
 169              		.file 7 "Generated_Source\\PSoC5/ADC_SAR_Seq_1.h"
 170              		.file 8 "Generated_Source\\PSoC5/PWM_1.h"
 171              		.file 9 "Generated_Source\\PSoC5/CyLib.h"
 172              		.file 10 "Generated_Source\\PSoC5/core_cm3.h"