ARM GAS  C:\Users\Joon\AppData\Local\Temp\ccdU5ui3.s 			page 1


   1              		.syntax unified
   2              		.cpu cortex-m3
   3              		.fpu softvfp
   4              		.eabi_attribute 20, 1
   5              		.eabi_attribute 21, 1
   6              		.eabi_attribute 23, 3
   7              		.eabi_attribute 24, 1
   8              		.eabi_attribute 25, 1
   9              		.eabi_attribute 26, 1
  10              		.eabi_attribute 30, 1
  11              		.eabi_attribute 34, 1
  12              		.eabi_attribute 18, 4
  13              		.thumb
  14              		.syntax unified
  15              		.file	"main.c"
  16              		.text
  17              	.Ltext0:
  18              		.cfi_sections	.debug_frame
  19              		.global	__aeabi_fmul
  20              		.global	__aeabi_fadd
  21              		.global	__aeabi_f2iz
  22              		.global	__aeabi_i2f
  23              		.section	.text.theta_1,"ax",%progbits
  24              		.align	2
  25              		.global	theta_1
  26              		.thumb
  27              		.thumb_func
  28              		.type	theta_1, %function
  29              	theta_1:
  30              	.LFB63:
  31              		.file 1 "main.c"
   1:main.c        **** #include "project.h"
   2:main.c        **** 
   3:main.c        **** float theta_1(float angle)
   4:main.c        **** {
  32              		.loc 1 4 0
  33              		.cfi_startproc
  34              		@ args = 0, pretend = 0, frame = 0
  35              		@ frame_needed = 0, uses_anonymous_args = 0
  36              	.LVL0:
  37 0000 08B5     		push	{r3, lr}
  38              		.cfi_def_cfa_offset 8
  39              		.cfi_offset 3, -8
  40              		.cfi_offset 14, -4
  41              	.LVL1:
   5:main.c        ****     int compare;
   6:main.c        ****     int min_angle = 0;
   7:main.c        ****     int max_angle = 180;
   8:main.c        ****     int min_comp = 1250;
   9:main.c        ****     int max_comp = 7000;
  10:main.c        ****     
  11:main.c        ****     return compare = (((max_comp - min_comp) / (max_angle - min_angle)) * (angle - min_angle)) + mi
  42              		.loc 1 11 0
  43 0002 0549     		ldr	r1, .L3
  44 0004 FFF7FEFF 		bl	__aeabi_fmul
  45              	.LVL2:
  46 0008 0449     		ldr	r1, .L3+4
ARM GAS  C:\Users\Joon\AppData\Local\Temp\ccdU5ui3.s 			page 2


  47 000a FFF7FEFF 		bl	__aeabi_fadd
  48              	.LVL3:
  49 000e FFF7FEFF 		bl	__aeabi_f2iz
  50              	.LVL4:
  51 0012 FFF7FEFF 		bl	__aeabi_i2f
  52              	.LVL5:
  12:main.c        **** }
  53              		.loc 1 12 0
  54 0016 08BD     		pop	{r3, pc}
  55              	.L4:
  56              		.align	2
  57              	.L3:
  58 0018 0000F841 		.word	1106771968
  59 001c 00409C44 		.word	1151090688
  60              		.cfi_endproc
  61              	.LFE63:
  62              		.size	theta_1, .-theta_1
  63              		.section	.text.theta_2,"ax",%progbits
  64              		.align	2
  65              		.global	theta_2
  66              		.thumb
  67              		.thumb_func
  68              		.type	theta_2, %function
  69              	theta_2:
  70              	.LFB64:
  13:main.c        **** 
  14:main.c        **** float theta_2(float angle)
  15:main.c        **** {
  71              		.loc 1 15 0
  72              		.cfi_startproc
  73              		@ args = 0, pretend = 0, frame = 0
  74              		@ frame_needed = 0, uses_anonymous_args = 0
  75              	.LVL6:
  76 0000 08B5     		push	{r3, lr}
  77              		.cfi_def_cfa_offset 8
  78              		.cfi_offset 3, -8
  79              		.cfi_offset 14, -4
  80              	.LVL7:
  16:main.c        ****     int compare;
  17:main.c        ****     int min_angle = -90;
  18:main.c        ****     int max_angle = 90;
  19:main.c        ****     int min_comp = 1100;
  20:main.c        ****     int max_comp = 6800;
  21:main.c        ****     
  22:main.c        ****     return compare = (((max_comp - min_comp) / (max_angle - min_angle)) * (angle - min_angle)) + mi
  81              		.loc 1 22 0
  82 0002 0749     		ldr	r1, .L7
  83 0004 FFF7FEFF 		bl	__aeabi_fadd
  84              	.LVL8:
  85 0008 0649     		ldr	r1, .L7+4
  86 000a FFF7FEFF 		bl	__aeabi_fmul
  87              	.LVL9:
  88 000e 0649     		ldr	r1, .L7+8
  89 0010 FFF7FEFF 		bl	__aeabi_fadd
  90              	.LVL10:
  91 0014 FFF7FEFF 		bl	__aeabi_f2iz
  92              	.LVL11:
ARM GAS  C:\Users\Joon\AppData\Local\Temp\ccdU5ui3.s 			page 3


  93 0018 FFF7FEFF 		bl	__aeabi_i2f
  94              	.LVL12:
  23:main.c        **** }
  95              		.loc 1 23 0
  96 001c 08BD     		pop	{r3, pc}
  97              	.L8:
  98 001e 00BF     		.align	2
  99              	.L7:
 100 0020 0000B442 		.word	1119092736
 101 0024 0000F841 		.word	1106771968
 102 0028 00808944 		.word	1149861888
 103              		.cfi_endproc
 104              	.LFE64:
 105              		.size	theta_2, .-theta_2
 106              		.global	__aeabi_f2uiz
 107              		.section	.text.main,"ax",%progbits
 108              		.align	2
 109              		.global	main
 110              		.thumb
 111              		.thumb_func
 112              		.type	main, %function
 113              	main:
 114              	.LFB65:
  24:main.c        **** 
  25:main.c        **** int main(void)
  26:main.c        **** {
 115              		.loc 1 26 0
 116              		.cfi_startproc
 117              		@ Volatile: function does not return.
 118              		@ args = 0, pretend = 0, frame = 0
 119              		@ frame_needed = 0, uses_anonymous_args = 0
 120 0000 08B5     		push	{r3, lr}
 121              		.cfi_def_cfa_offset 8
 122              		.cfi_offset 3, -8
 123              		.cfi_offset 14, -4
  27:main.c        ****     PWM_1_Start();
 124              		.loc 1 27 0
 125 0002 FFF7FEFF 		bl	PWM_1_Start
 126              	.LVL13:
 127              	.L10:
  28:main.c        ****     
  29:main.c        ****     for(;;)
  30:main.c        ****     {
  31:main.c        ****         PWM_1_WriteCompare1(theta_1(30.0));  // Send servo 1 to clockwise position
 128              		.loc 1 31 0 discriminator 1
 129 0006 0A48     		ldr	r0, .L12
 130 0008 FFF7FEFF 		bl	theta_1
 131              	.LVL14:
 132 000c FFF7FEFF 		bl	__aeabi_f2uiz
 133              	.LVL15:
 134 0010 80B2     		uxth	r0, r0
 135 0012 FFF7FEFF 		bl	PWM_1_WriteCompare1
 136              	.LVL16:
  32:main.c        ****         PWM_1_WriteCompare2(theta_2(90.0));
 137              		.loc 1 32 0 discriminator 1
 138 0016 0748     		ldr	r0, .L12+4
 139 0018 FFF7FEFF 		bl	theta_2
ARM GAS  C:\Users\Joon\AppData\Local\Temp\ccdU5ui3.s 			page 4


 140              	.LVL17:
 141 001c FFF7FEFF 		bl	__aeabi_f2uiz
 142              	.LVL18:
 143 0020 80B2     		uxth	r0, r0
 144 0022 FFF7FEFF 		bl	PWM_1_WriteCompare2
 145              	.LVL19:
  33:main.c        ****         CyDelay(2000);
 146              		.loc 1 33 0 discriminator 1
 147 0026 4FF4FA60 		mov	r0, #2000
 148 002a FFF7FEFF 		bl	CyDelay
 149              	.LVL20:
 150 002e EAE7     		b	.L10
 151              	.L13:
 152              		.align	2
 153              	.L12:
 154 0030 0000F041 		.word	1106247680
 155 0034 0000B442 		.word	1119092736
 156              		.cfi_endproc
 157              	.LFE65:
 158              		.size	main, .-main
 159              		.text
 160              	.Letext0:
 161              		.file 2 "c:\\program files (x86)\\cypress\\psoc creator\\4.4\\psoc creator\\import\\gnu\\arm\\5.4.
 162              		.file 3 "c:\\program files (x86)\\cypress\\psoc creator\\4.4\\psoc creator\\import\\gnu\\arm\\5.4.
 163              		.file 4 "Generated_Source\\PSoC5/PWM_1.h"
 164              		.file 5 "Generated_Source\\PSoC5/CyLib.h"
 165              		.file 6 "Generated_Source\\PSoC5/core_cm3.h"