ARM GAS  C:\Users\Joon\AppData\Local\Temp\cc1JwBbv.s 			page 1


   1              		.syntax unified
   2              		.cpu cortex-m3
   3              		.fpu softvfp
   4              		.eabi_attribute 20, 1
   5              		.eabi_attribute 21, 1
   6              		.eabi_attribute 23, 3
   7              		.eabi_attribute 24, 1
   8              		.eabi_attribute 25, 1
   9              		.eabi_attribute 26, 1
  10              		.eabi_attribute 30, 1
  11              		.eabi_attribute 34, 1
  12              		.eabi_attribute 18, 4
  13              		.thumb
  14              		.syntax unified
  15              		.file	"main.c"
  16              		.text
  17              	.Ltext0:
  18              		.cfi_sections	.debug_frame
  19              		.section	.text.main,"ax",%progbits
  20              		.align	2
  21              		.global	main
  22              		.thumb
  23              		.thumb_func
  24              		.type	main, %function
  25              	main:
  26              	.LFB63:
  27              		.file 1 "main.c"
   1:main.c        **** 
   2:main.c        **** #include "project.h"
   3:main.c        **** 
   4:main.c        **** int main(void)
   5:main.c        **** {
  28              		.loc 1 5 0
  29              		.cfi_startproc
  30              		@ args = 0, pretend = 0, frame = 0
  31              		@ frame_needed = 0, uses_anonymous_args = 0
  32 0000 38B5     		push	{r3, r4, r5, lr}
  33              		.cfi_def_cfa_offset 16
  34              		.cfi_offset 3, -16
  35              		.cfi_offset 4, -12
  36              		.cfi_offset 5, -8
  37              		.cfi_offset 14, -4
  38              	.LVL0:
   6:main.c        ****     int counter = 0;
   7:main.c        ****     int time;
   8:main.c        ****     int target_count1 = 1000;   // target positions for rack and pinion
   9:main.c        ****     int target_count2 = 2000;
  10:main.c        ****         
  11:main.c        ****     quaddec_1_Start();
  39              		.loc 1 11 0
  40 0002 FFF7FEFF 		bl	quaddec_1_Start
  41              	.LVL1:
  12:main.c        ****     lcd_char_1_Start();
  42              		.loc 1 12 0
  43 0006 FFF7FEFF 		bl	lcd_char_1_Start
  44              	.LVL2:
  13:main.c        ****     pwm_1_Start();
ARM GAS  C:\Users\Joon\AppData\Local\Temp\cc1JwBbv.s 			page 2


  45              		.loc 1 13 0
  46 000a FFF7FEFF 		bl	pwm_1_Start
  47              	.LVL3:
  48              	.L12:
  14:main.c        **** 
  15:main.c        ****     for(;;)
  16:main.c        ****     {
  17:main.c        ****         time = 0;
  49              		.loc 1 17 0
  50 000e 0025     		movs	r5, #0
  18:main.c        ****         
  19:main.c        ****         // continue doing this control algorithm as long as it hasn't reached 5 seconds
  20:main.c        ****         while(time < 5000)
  51              		.loc 1 20 0
  52 0010 2AE0     		b	.L2
  53              	.LVL4:
  54              	.L6:
  21:main.c        ****         {
  22:main.c        ****             counter = quaddec_1_GetCounter();  // Second count after the motor has been turned on
  55              		.loc 1 22 0
  56 0012 FFF7FEFF 		bl	quaddec_1_GetCounter
  57              	.LVL5:
  58 0016 0446     		mov	r4, r0
  59              	.LVL6:
  23:main.c        ****             
  24:main.c        ****             // if we are less than the target position, turn the motor forwards
  25:main.c        ****             if (counter < target_count1)
  60              		.loc 1 25 0
  61 0018 B0F57A7F 		cmp	r0, #1000
  62 001c 06DA     		bge	.L3
  26:main.c        ****             {
  27:main.c        ****                 pwm_1_WriteCompare1(83);    // calculated compare value
  63              		.loc 1 27 0
  64 001e 5320     		movs	r0, #83
  65              	.LVL7:
  66 0020 FFF7FEFF 		bl	pwm_1_WriteCompare1
  67              	.LVL8:
  28:main.c        ****                 pwm_1_WriteCompare2(0);
  68              		.loc 1 28 0
  69 0024 0020     		movs	r0, #0
  70 0026 FFF7FEFF 		bl	pwm_1_WriteCompare2
  71              	.LVL9:
  72 002a 0FE0     		b	.L4
  73              	.LVL10:
  74              	.L3:
  29:main.c        ****             }
  30:main.c        ****             else if (counter > target_count1) // if we are more than the target position, turn the 
  75              		.loc 1 30 0
  76 002c B0F57A7F 		cmp	r0, #1000
  77 0030 06DD     		ble	.L5
  31:main.c        ****             {
  32:main.c        ****                 pwm_1_WriteCompare1(0);    // calculated compare value
  78              		.loc 1 32 0
  79 0032 0020     		movs	r0, #0
  80              	.LVL11:
  81 0034 FFF7FEFF 		bl	pwm_1_WriteCompare1
  82              	.LVL12:
ARM GAS  C:\Users\Joon\AppData\Local\Temp\cc1JwBbv.s 			page 3


  33:main.c        ****                 pwm_1_WriteCompare2(83);                
  83              		.loc 1 33 0
  84 0038 5320     		movs	r0, #83
  85 003a FFF7FEFF 		bl	pwm_1_WriteCompare2
  86              	.LVL13:
  87 003e 05E0     		b	.L4
  88              	.LVL14:
  89              	.L5:
  34:main.c        ****             }
  35:main.c        ****             else    // if we are at the desired position, then turn the motor off
  36:main.c        ****             {
  37:main.c        ****                 pwm_1_WriteCompare1(0);
  90              		.loc 1 37 0
  91 0040 0020     		movs	r0, #0
  92              	.LVL15:
  93 0042 FFF7FEFF 		bl	pwm_1_WriteCompare1
  94              	.LVL16:
  38:main.c        ****                 pwm_1_WriteCompare2(0);                
  95              		.loc 1 38 0
  96 0046 0020     		movs	r0, #0
  97 0048 FFF7FEFF 		bl	pwm_1_WriteCompare2
  98              	.LVL17:
  99              	.L4:
  39:main.c        ****             }
  40:main.c        ****             CyDelay(1); // wait a millisecond and increment time variable
 100              		.loc 1 40 0
 101 004c 0120     		movs	r0, #1
 102 004e FFF7FEFF 		bl	CyDelay
 103              	.LVL18:
  41:main.c        ****             lcd_char_1_ClearDisplay();
 104              		.loc 1 41 0
 105 0052 0120     		movs	r0, #1
 106 0054 FFF7FEFF 		bl	lcd_char_1_WriteControl
 107              	.LVL19:
  42:main.c        ****             lcd_char_1_Position(0, 0);
 108              		.loc 1 42 0
 109 0058 0021     		movs	r1, #0
 110 005a 0846     		mov	r0, r1
 111 005c FFF7FEFF 		bl	lcd_char_1_Position
 112              	.LVL20:
  43:main.c        ****             lcd_char_1_PrintNumber(counter);
 113              		.loc 1 43 0
 114 0060 A0B2     		uxth	r0, r4
 115 0062 FFF7FEFF 		bl	lcd_char_1_PrintU32Number
 116              	.LVL21:
  44:main.c        ****             time += 1;
 117              		.loc 1 44 0
 118 0066 0135     		adds	r5, r5, #1
 119              	.LVL22:
 120              	.L2:
  20:main.c        ****         {
 121              		.loc 1 20 0
 122 0068 41F28733 		movw	r3, #4999
 123 006c 9D42     		cmp	r5, r3
 124 006e D0DD     		ble	.L6
 125 0070 0025     		movs	r5, #0
 126              	.LVL23:
ARM GAS  C:\Users\Joon\AppData\Local\Temp\cc1JwBbv.s 			page 4


 127 0072 2AE0     		b	.L7
 128              	.LVL24:
 129              	.L11:
  45:main.c        ****         }
  46:main.c        ****         
  47:main.c        ****         time = 0;
  48:main.c        ****         
  49:main.c        ****         // continue doing this control algorithm as long as it hasn't reached 5 seconds
  50:main.c        ****         while(time < 5000)
  51:main.c        ****         {
  52:main.c        ****             counter = quaddec_1_GetCounter();  // Second count after the motor has been turned on
 130              		.loc 1 52 0
 131 0074 FFF7FEFF 		bl	quaddec_1_GetCounter
 132              	.LVL25:
 133 0078 0446     		mov	r4, r0
 134              	.LVL26:
  53:main.c        ****             
  54:main.c        ****             // if we are less than the target position, turn the motor forwards
  55:main.c        ****             if (counter < target_count2)
 135              		.loc 1 55 0
 136 007a B0F5FA6F 		cmp	r0, #2000
 137 007e 06DA     		bge	.L8
  56:main.c        ****             {
  57:main.c        ****                 pwm_1_WriteCompare1(83);    // calculated compare value
 138              		.loc 1 57 0
 139 0080 5320     		movs	r0, #83
 140              	.LVL27:
 141 0082 FFF7FEFF 		bl	pwm_1_WriteCompare1
 142              	.LVL28:
  58:main.c        ****                 pwm_1_WriteCompare2(0);
 143              		.loc 1 58 0
 144 0086 0020     		movs	r0, #0
 145 0088 FFF7FEFF 		bl	pwm_1_WriteCompare2
 146              	.LVL29:
 147 008c 0FE0     		b	.L9
 148              	.LVL30:
 149              	.L8:
  59:main.c        ****             }
  60:main.c        ****             else if (counter > target_count2) // if we are more than the target position, turn the 
 150              		.loc 1 60 0
 151 008e B0F5FA6F 		cmp	r0, #2000
 152 0092 06DD     		ble	.L10
  61:main.c        ****             {
  62:main.c        ****                 pwm_1_WriteCompare1(0);    // calculated compare value
 153              		.loc 1 62 0
 154 0094 0020     		movs	r0, #0
 155              	.LVL31:
 156 0096 FFF7FEFF 		bl	pwm_1_WriteCompare1
 157              	.LVL32:
  63:main.c        ****                 pwm_1_WriteCompare2(83);                
 158              		.loc 1 63 0
 159 009a 5320     		movs	r0, #83
 160 009c FFF7FEFF 		bl	pwm_1_WriteCompare2
 161              	.LVL33:
 162 00a0 05E0     		b	.L9
 163              	.LVL34:
 164              	.L10:
ARM GAS  C:\Users\Joon\AppData\Local\Temp\cc1JwBbv.s 			page 5


  64:main.c        ****             }
  65:main.c        ****             else    // if we are at the desired position, then turn the motor off
  66:main.c        ****             {
  67:main.c        ****                 pwm_1_WriteCompare1(0);
 165              		.loc 1 67 0
 166 00a2 0020     		movs	r0, #0
 167              	.LVL35:
 168 00a4 FFF7FEFF 		bl	pwm_1_WriteCompare1
 169              	.LVL36:
  68:main.c        ****                 pwm_1_WriteCompare2(0);                
 170              		.loc 1 68 0
 171 00a8 0020     		movs	r0, #0
 172 00aa FFF7FEFF 		bl	pwm_1_WriteCompare2
 173              	.LVL37:
 174              	.L9:
  69:main.c        ****             }
  70:main.c        ****             CyDelay(1); // wait a millisecond and increment time variable
 175              		.loc 1 70 0
 176 00ae 0120     		movs	r0, #1
 177 00b0 FFF7FEFF 		bl	CyDelay
 178              	.LVL38:
  71:main.c        ****             lcd_char_1_ClearDisplay();
 179              		.loc 1 71 0
 180 00b4 0120     		movs	r0, #1
 181 00b6 FFF7FEFF 		bl	lcd_char_1_WriteControl
 182              	.LVL39:
  72:main.c        ****             lcd_char_1_Position(0, 0);
 183              		.loc 1 72 0
 184 00ba 0021     		movs	r1, #0
 185 00bc 0846     		mov	r0, r1
 186 00be FFF7FEFF 		bl	lcd_char_1_Position
 187              	.LVL40:
  73:main.c        ****             lcd_char_1_PrintNumber(counter);
 188              		.loc 1 73 0
 189 00c2 A0B2     		uxth	r0, r4
 190 00c4 FFF7FEFF 		bl	lcd_char_1_PrintU32Number
 191              	.LVL41:
  74:main.c        ****             time += 1;
 192              		.loc 1 74 0
 193 00c8 0135     		adds	r5, r5, #1
 194              	.LVL42:
 195              	.L7:
  50:main.c        ****         {
 196              		.loc 1 50 0
 197 00ca 41F28733 		movw	r3, #4999
 198 00ce 9D42     		cmp	r5, r3
 199 00d0 D0DD     		ble	.L11
 200 00d2 9CE7     		b	.L12
 201              		.cfi_endproc
 202              	.LFE63:
 203              		.size	main, .-main
 204              		.text
 205              	.Letext0:
 206              		.file 2 "c:\\program files (x86)\\cypress\\psoc creator\\4.4\\psoc creator\\import\\gnu\\arm\\5.4.
 207              		.file 3 "c:\\program files (x86)\\cypress\\psoc creator\\4.4\\psoc creator\\import\\gnu\\arm\\5.4.
 208              		.file 4 "Generated_Source\\PSoC5/cytypes.h"
 209              		.file 5 "Generated_Source\\PSoC5/quaddec_1.h"
ARM GAS  C:\Users\Joon\AppData\Local\Temp\cc1JwBbv.s 			page 6


 210              		.file 6 "Generated_Source\\PSoC5/lcd_char_1.h"
 211              		.file 7 "Generated_Source\\PSoC5/pwm_1.h"
 212              		.file 8 "Generated_Source\\PSoC5/CyLib.h"
 213              		.file 9 "Generated_Source\\PSoC5/core_cm3.h"